target datalayout = "e-m:e-p270:32:32-p271:32:32-p272:64:64-i64:64-i128:128-f80:128-n8:16:32:64-S128"
target triple = "x86_64-unknown-linux-gnu"

%class.btVector3 = type { [4 x float] }
%class.btKinematicCharacterController = type <{ %class.btCharacterControllerInterface, float, [4 x i8], ptr, ptr, float, float, float, float, float, float, float, float, float, float, float, float, float, %class.btVector3, %class.btVector3, %class.btVector3, %class.btVector3, %class.btVector3, float, %class.btVector3, %class.btQuaternion, %class.btQuaternion, %class.btAlignedObjectArray, i8, [3 x i8], %class.btVector3, float, float, i8, i8, i8, i8, float, %class.btVector3, %class.btVector3, i8, i8, i8, i8 }>
%class.btCharacterControllerInterface = type { %class.btActionInterface }
%class.btActionInterface = type { ptr }
%class.btQuaternion = type { %class.btQuadWord }
%class.btQuadWord = type { [4 x float] }
%class.btAlignedObjectArray = type <{ %class.btAlignedAllocator, [3 x i8], i32, i32, [4 x i8], ptr, i8, [7 x i8] }>
%class.btAlignedAllocator = type { i8 }
%class.btTransform = type { %class.btMatrix3x3, %class.btVector3 }
%class.btMatrix3x3 = type { [3 x %class.btVector3] }
%class.btCollisionObject = type <{ ptr, %class.btTransform, %class.btTransform, %class.btVector3, %class.btVector3, %class.btVector3, i32, float, ptr, ptr, ptr, ptr, i32, i32, i32, i32, i32, float, float, float, float, float, float, float, i32, [4 x i8], ptr, i32, i32, i32, float, float, float, i32, [4 x i8], %class.btAlignedObjectArray.0, i32, %class.btVector3, [4 x i8] }>
%class.btAlignedObjectArray.0 = type <{ %class.btAlignedAllocator.1, [3 x i8], i32, i32, [4 x i8], ptr, i8, [7 x i8] }>
%class.btAlignedAllocator.1 = type { i8 }

; Function Attrs: mustprogress nounwind uwtable
define linkonce_odr dso_local void @_ZN10btQuadWordC2Ev(ptr noundef nonnull align 4 dereferenceable(16) %this) unnamed_addr #1 comdat align 2 {
entry:
  %this.addr = alloca ptr, align 8
  store ptr %this, ptr %this.addr, align 8
  ret void
}

; Function Attrs: mustprogress uwtable
define linkonce_odr dso_local void @_ZN12btQuaternionC2Ev(ptr noundef nonnull align 4 dereferenceable(16) %this) unnamed_addr #3 comdat align 2 {
entry:
  %this.addr = alloca ptr, align 8
  store ptr %this, ptr %this.addr, align 8
  %this1 = load ptr, ptr %this.addr, align 8
  call void @_ZN10btQuadWordC2Ev(ptr noundef nonnull align 4 dereferenceable(16) %this1)
  ret void
}

; Function Attrs: mustprogress uwtable
define linkonce_odr dso_local { <2 x float>, <2 x float> } @_ZNK11btTransform11getRotationEv(ptr noundef nonnull align 4 dereferenceable(64) %this) #3 comdat align 2 {
entry:
  %retval = alloca %class.btQuaternion, align 4
  %this.addr = alloca ptr, align 8
  store ptr %this, ptr %this.addr, align 8
  %this1 = load ptr, ptr %this.addr, align 8
  call void @_ZN12btQuaternionC2Ev(ptr noundef nonnull align 4 dereferenceable(16) %retval)
  %m_basis = getelementptr inbounds %class.btTransform, ptr %this1, i32 0, i32 0
  call void @_ZNK11btMatrix3x311getRotationER12btQuaternion(ptr noundef nonnull align 4 dereferenceable(48) %m_basis, ptr noundef nonnull align 4 dereferenceable(16) %retval)
  %coerce.dive = getelementptr inbounds %class.btQuaternion, ptr %retval, i32 0, i32 0
  %coerce.dive2 = getelementptr inbounds %class.btQuadWord, ptr %coerce.dive, i32 0, i32 0
  %0 = load { <2 x float>, <2 x float> }, ptr %coerce.dive2, align 4
  ret { <2 x float>, <2 x float> } %0
}

; Function Attrs: mustprogress nounwind uwtable
define linkonce_odr dso_local noundef nonnull align 4 dereferenceable(16) ptr @_ZN11btTransform9getOriginEv(ptr noundef nonnull align 4 dereferenceable(64) %this) #1 comdat align 2 {
entry:
  %this.addr = alloca ptr, align 8
  store ptr %this, ptr %this.addr, align 8
  %this1 = load ptr, ptr %this.addr, align 8
  %m_origin = getelementptr inbounds %class.btTransform, ptr %this1, i32 0, i32 1
  ret ptr %m_origin
}

; Function Attrs: mustprogress nounwind uwtable
define linkonce_odr dso_local noundef nonnull align 4 dereferenceable(64) ptr @_ZN17btCollisionObject17getWorldTransformEv(ptr noundef nonnull align 8 dereferenceable(372) %this) #1 comdat align 2 {
entry:
  %this.addr = alloca ptr, align 8
  store ptr %this, ptr %this.addr, align 8
  %this1 = load ptr, ptr %this.addr, align 8
  %m_worldTransform = getelementptr inbounds %class.btCollisionObject, ptr %this1, i32 0, i32 1
  ret ptr %m_worldTransform
}

; Function Attrs: mustprogress uwtable
define dso_local void @_ZN30btKinematicCharacterController7preStepEP16btCollisionWorld(ptr noundef nonnull align 8 dereferenceable(319) %this, ptr noundef %collisionWorld) unnamed_addr #2 align 2 {
entry:
  %this.addr = alloca ptr, align 8
  %collisionWorld.addr = alloca ptr, align 8
  %ref.tmp = alloca %class.btQuaternion, align 4
  store ptr %this, ptr %this.addr, align 8
  store ptr %collisionWorld, ptr %collisionWorld.addr, align 8
  %this1 = load ptr, ptr %this.addr, align 8
  %m_ghostObject = getelementptr inbounds %class.btKinematicCharacterController, ptr %this1, i32 0, i32 3
  %0 = load ptr, ptr %m_ghostObject, align 8
  %call = call noundef nonnull align 4 dereferenceable(64) ptr @_ZN17btCollisionObject17getWorldTransformEv(ptr noundef nonnull align 8 dereferenceable(372) %0)
  %call2 = call noundef nonnull align 4 dereferenceable(16) ptr @_ZN11btTransform9getOriginEv(ptr noundef nonnull align 4 dereferenceable(64) %call)
  %m_currentPosition = getelementptr inbounds %class.btKinematicCharacterController, ptr %this1, i32 0, i32 22
  call void @llvm.memcpy.p0.p0.i64(ptr align 4 %m_currentPosition, ptr align 4 %call2, i64 16, i1 false)
  %m_currentPosition3 = getelementptr inbounds %class.btKinematicCharacterController, ptr %this1, i32 0, i32 22
  %m_targetPosition = getelementptr inbounds %class.btKinematicCharacterController, ptr %this1, i32 0, i32 24
  call void @llvm.memcpy.p0.p0.i64(ptr align 8 %m_targetPosition, ptr align 4 %m_currentPosition3, i64 16, i1 false)
  %m_ghostObject4 = getelementptr inbounds %class.btKinematicCharacterController, ptr %this1, i32 0, i32 3
  %1 = load ptr, ptr %m_ghostObject4, align 8
  %call5 = call noundef nonnull align 4 dereferenceable(64) ptr @_ZN17btCollisionObject17getWorldTransformEv(ptr noundef nonnull align 8 dereferenceable(372) %1)
  %call6 = call { <2 x float>, <2 x float> } @_ZNK11btTransform11getRotationEv(ptr noundef nonnull align 4 dereferenceable(64) %call5)
  %coerce.dive = getelementptr inbounds %class.btQuaternion, ptr %ref.tmp, i32 0, i32 0
  %coerce.dive7 = getelementptr inbounds %class.btQuadWord, ptr %coerce.dive, i32 0, i32 0
  %2 = getelementptr inbounds { <2 x float>, <2 x float> }, ptr %coerce.dive7, i32 0, i32 0
  %3 = extractvalue { <2 x float>, <2 x float> } %call6, 0
  store <2 x float> %3, ptr %2, align 4
  %4 = getelementptr inbounds { <2 x float>, <2 x float> }, ptr %coerce.dive7, i32 0, i32 1
  %5 = extractvalue { <2 x float>, <2 x float> } %call6, 1
  store <2 x float> %5, ptr %4, align 4
  %m_currentOrientation = getelementptr inbounds %class.btKinematicCharacterController, ptr %this1, i32 0, i32 25
  call void @llvm.memcpy.p0.p0.i64(ptr align 8 %m_currentOrientation, ptr align 4 %ref.tmp, i64 16, i1 false)
  %m_currentOrientation8 = getelementptr inbounds %class.btKinematicCharacterController, ptr %this1, i32 0, i32 25
  %m_targetOrientation = getelementptr inbounds %class.btKinematicCharacterController, ptr %this1, i32 0, i32 26
  call void @llvm.memcpy.p0.p0.i64(ptr align 8 %m_targetOrientation, ptr align 8 %m_currentOrientation8, i64 16, i1 false)
  ret void
}