; Function Attrs: mustprogress uwtable
define dso_local void @_ZN30btKinematicCharacterController7preStepEP16btCollisionWorld(ptr nocapture noundef nonnull align 8 dereferenceable(319) %this, ptr nocapture readnone %collisionWorld) unnamed_addr #1 align 2 {
entry:
  %retval.i = alloca %class.btQuaternion, align 8
  %m_ghostObject = getelementptr inbounds i8, ptr %this, i64 16
  %0 = load ptr, ptr %m_ghostObject, align 8
  %m_worldTransform.i = getelementptr inbounds i8, ptr %0, i64 8
  %m_origin.i = getelementptr inbounds i8, ptr %0, i64 56
  %m_currentPosition = getelementptr inbounds i8, ptr %this, i64 148
  tail call void @llvm.memcpy.p0.p0.i64(ptr noundef nonnull align 4 dereferenceable(16) %m_currentPosition, ptr noundef nonnull align 4 dereferenceable(16) %m_origin.i, i64 16, i1 false)
  %m_targetPosition = getelementptr inbounds i8, ptr %this, i64 168
  tail call void @llvm.memmove.p0.p0.i64(ptr noundef nonnull align 8 dereferenceable(16) %m_targetPosition, ptr noundef nonnull align 4 dereferenceable(16) %m_origin.i, i64 16, i1 false)
  call void @llvm.lifetime.start.p0(i64 16, ptr nonnull %retval.i)
  call void @_ZNK11btMatrix3x311getRotationER12btQuaternion(ptr noundef nonnull align 4 dereferenceable(48) %m_worldTransform.i, ptr noundef nonnull align 4 dereferenceable(16) %retval.i)
  %.fca.0.load.i = load <2 x float>, ptr %retval.i, align 8
  %.fca.1.gep.i = getelementptr inbounds i8, ptr %retval.i, i64 8
  %.fca.1.load.i = load <2 x float>, ptr %.fca.1.gep.i, align 8
  call void @llvm.lifetime.end.p0(i64 16, ptr nonnull %retval.i)
  %m_currentOrientation = getelementptr inbounds i8, ptr %this, i64 184
  store <2 x float> %.fca.0.load.i, ptr %m_currentOrientation, align 8
  %ref.tmp.sroa.2.0.m_currentOrientation.sroa_idx = getelementptr inbounds i8, ptr %this, i64 192
  store <2 x float> %.fca.1.load.i, ptr %ref.tmp.sroa.2.0.m_currentOrientation.sroa_idx, align 8
  %m_targetOrientation = getelementptr inbounds i8, ptr %this, i64 200
  call void @llvm.memcpy.p0.p0.i64(ptr noundef nonnull align 8 dereferenceable(16) %m_targetOrientation, ptr noundef nonnull align 8 dereferenceable(16) %m_currentOrientation, i64 16, i1 false)
  ret void
}